target datalayout = "e-m:e-p270:32:32-p271:32:32-p272:64:64-i64:64-i128:128-f80:128-n8:16:32:64-S128"
target triple = "x86_64-pc-linux-gnu"

%"class.cv::Mat" = type { i32, i32, i32, i32, ptr, ptr, ptr, ptr, ptr, ptr, %"struct.cv::MatSize", %"struct.cv::MatStep" }
%"struct.cv::MatSize" = type { ptr }
%"struct.cv::MatStep" = type { ptr, [2 x i64] }
%"class.cv::_OutputArray" = type { %"class.cv::_InputArray" }
%"class.cv::_InputArray" = type { i32, ptr, %"class.cv::Size_" }
%"class.cv::Size_" = type { i32, i32 }
%"class.cv::Range" = type { i32, i32 }
%"class.cv::Matx.19" = type { [9 x double] }
%"class.cv::_InputOutputArray" = type { %"class.cv::_OutputArray" }

; Function Attrs: inlinehint mustprogress nounwind uwtable
define internal noundef double @_ZN2cvL13saturate_castIdEET_d(double noundef %0) #9 {
  %2 = alloca double, align 8
  store double %0, ptr %2, align 8, !tbaa !18
  %3 = load double, ptr %2, align 8, !tbaa !18
  ret double %3
}

; Function Attrs: inlinehint mustprogress uwtable
define linkonce_odr hidden void @_ZN2cv12_OutputArrayC2Ev(ptr noundef nonnull align 8 dereferenceable(24) %0) unnamed_addr #8 comdat align 2 {
  %2 = alloca ptr, align 8
  store ptr %0, ptr %2, align 8, !tbaa !68
  %3 = load ptr, ptr %2, align 8
  call void @_ZN2cv11_InputArrayC2Ev(ptr noundef nonnull align 8 dereferenceable(24) %3)
  call void @_ZN2cv11_InputArray4initEiPKv(ptr noundef nonnull align 8 dereferenceable(24) %3, i32 noundef 33554432, ptr noundef null)
  ret void
}

; Function Attrs: inlinehint mustprogress nounwind uwtable
define linkonce_odr hidden void @_ZN2cv11_InputArray4initEiPKvNS_5Size_IiEE(ptr noundef nonnull align 8 dereferenceable(24) %0, i32 noundef %1, ptr noundef %2, i64 %3) #9 comdat align 2 {
  %5 = alloca %"class.cv::Size_", align 4
  %6 = alloca ptr, align 8
  %7 = alloca i32, align 4
  %8 = alloca ptr, align 8
  store i64 %3, ptr %5, align 4
  store ptr %0, ptr %6, align 8, !tbaa !109
  store i32 %1, ptr %7, align 4, !tbaa !8
  store ptr %2, ptr %8, align 8, !tbaa !64
  %9 = load ptr, ptr %6, align 8
  %10 = load i32, ptr %7, align 4, !tbaa !8
  %11 = getelementptr inbounds nuw %"class.cv::_InputArray", ptr %9, i32 0, i32 0
  store i32 %10, ptr %11, align 8, !tbaa !198
  %12 = load ptr, ptr %8, align 8, !tbaa !64
  %13 = getelementptr inbounds nuw %"class.cv::_InputArray", ptr %9, i32 0, i32 1
  store ptr %12, ptr %13, align 8, !tbaa !201
  %14 = getelementptr inbounds nuw %"class.cv::_InputArray", ptr %9, i32 0, i32 2
  call void @llvm.memcpy.p0.p0.i64(ptr align 8 %14, ptr align 4 %5, i64 8, i1 false), !tbaa.struct !326
  ret void
}

; Function Attrs: inlinehint mustprogress nounwind uwtable
define linkonce_odr hidden void @_ZN2cv5Size_IiEC2Eii(ptr noundef nonnull align 4 dereferenceable(8) %0, i32 noundef %1, i32 noundef %2) unnamed_addr #9 comdat align 2 {
  %4 = alloca ptr, align 8
  %5 = alloca i32, align 4
  %6 = alloca i32, align 4
  store ptr %0, ptr %4, align 8, !tbaa !202
  store i32 %1, ptr %5, align 4, !tbaa !8
  store i32 %2, ptr %6, align 4, !tbaa !8
  %7 = load ptr, ptr %4, align 8
  %8 = getelementptr inbounds nuw %"class.cv::Size_", ptr %7, i32 0, i32 0
  %9 = load i32, ptr %5, align 4, !tbaa !8
  store i32 %9, ptr %8, align 4, !tbaa !204
  %10 = getelementptr inbounds nuw %"class.cv::Size_", ptr %7, i32 0, i32 1
  %11 = load i32, ptr %6, align 4, !tbaa !8
  store i32 %11, ptr %10, align 4, !tbaa !205
  ret void
}

; Function Attrs: inlinehint mustprogress uwtable
define linkonce_odr hidden void @_ZN2cv11_InputArrayC2Ev(ptr noundef nonnull align 8 dereferenceable(24) %0) unnamed_addr #8 comdat align 2 {
  %2 = alloca ptr, align 8
  store ptr %0, ptr %2, align 8, !tbaa !109
  %3 = load ptr, ptr %2, align 8
  %4 = getelementptr inbounds nuw %"class.cv::_InputArray", ptr %3, i32 0, i32 2
  call void @_ZN2cv5Size_IiEC2Ev(ptr noundef nonnull align 4 dereferenceable(8) %4)
  call void @_ZN2cv11_InputArray4initEiPKv(ptr noundef nonnull align 8 dereferenceable(24) %3, i32 noundef 0, ptr noundef null)
  ret void
}

; Function Attrs: inlinehint mustprogress nounwind uwtable
define linkonce_odr hidden void @_ZN2cv11_InputArray4initEiPKv(ptr noundef nonnull align 8 dereferenceable(24) %0, i32 noundef %1, ptr noundef %2) #9 comdat align 2 {
  %4 = alloca ptr, align 8
  %5 = alloca i32, align 4
  %6 = alloca ptr, align 8
  store ptr %0, ptr %4, align 8, !tbaa !109
  store i32 %1, ptr %5, align 4, !tbaa !8
  store ptr %2, ptr %6, align 8, !tbaa !64
  %7 = load ptr, ptr %4, align 8
  %8 = load i32, ptr %5, align 4, !tbaa !8
  %9 = getelementptr inbounds nuw %"class.cv::_InputArray", ptr %7, i32 0, i32 0
  store i32 %8, ptr %9, align 8, !tbaa !198
  %10 = load ptr, ptr %6, align 8, !tbaa !64
  %11 = getelementptr inbounds nuw %"class.cv::_InputArray", ptr %7, i32 0, i32 1
  store ptr %10, ptr %11, align 8, !tbaa !201
  ret void
}

; Function Attrs: inlinehint mustprogress nounwind uwtable
define linkonce_odr hidden void @_ZN2cv5Size_IiEC2Ev(ptr noundef nonnull align 4 dereferenceable(8) %0) unnamed_addr #9 comdat align 2 {
  %2 = alloca ptr, align 8
  store ptr %0, ptr %2, align 8, !tbaa !202
  %3 = load ptr, ptr %2, align 8
  %4 = getelementptr inbounds nuw %"class.cv::Size_", ptr %3, i32 0, i32 0
  store i32 0, ptr %4, align 4, !tbaa !204
  %5 = getelementptr inbounds nuw %"class.cv::Size_", ptr %3, i32 0, i32 1
  store i32 0, ptr %5, align 4, !tbaa !205
  ret void
}

; Function Attrs: inlinehint mustprogress uwtable
define linkonce_odr hidden i64 @_ZN2cv5Range3allEv() #8 comdat align 2 {
  %1 = alloca %"class.cv::Range", align 4
  call void @_ZN2cv5RangeC2Eii(ptr noundef nonnull align 4 dereferenceable(8) %1, i32 noundef -2147483648, i32 noundef 2147483647)
  %2 = load i64, ptr %1, align 4
  ret i64 %2
}

; Function Attrs: inlinehint mustprogress nounwind uwtable
define linkonce_odr hidden void @_ZN2cv5RangeC2Eii(ptr noundef nonnull align 4 dereferenceable(8) %0, i32 noundef %1, i32 noundef %2) unnamed_addr #9 comdat align 2 {
  %4 = alloca ptr, align 8
  %5 = alloca i32, align 4
  %6 = alloca i32, align 4
  store ptr %0, ptr %4, align 8, !tbaa !193
  store i32 %1, ptr %5, align 4, !tbaa !8
  store i32 %2, ptr %6, align 4, !tbaa !8
  %7 = load ptr, ptr %4, align 8
  %8 = getelementptr inbounds nuw %"class.cv::Range", ptr %7, i32 0, i32 0
  %9 = load i32, ptr %5, align 4, !tbaa !8
  store i32 %9, ptr %8, align 4, !tbaa !195
  %10 = getelementptr inbounds nuw %"class.cv::Range", ptr %7, i32 0, i32 1
  %11 = load i32, ptr %6, align 4, !tbaa !8
  store i32 %11, ptr %10, align 4, !tbaa !197
  ret void
}

; Function Attrs: inlinehint mustprogress nounwind uwtable
define internal noundef nonnull align 8 dereferenceable(72) ptr @_ZN2cvmLIdLi3ELi3EEERNS_4MatxIT_XT0_EXT1_EEES4_d(ptr noundef nonnull align 8 dereferenceable(72) %0, double noundef %1) #9 {
  %3 = alloca ptr, align 8
  %4 = alloca double, align 8
  %5 = alloca i32, align 4
  store ptr %0, ptr %3, align 8, !tbaa !126
  store double %1, ptr %4, align 8, !tbaa !18
  call void @llvm.lifetime.start.p0(i64 4, ptr %5) #3
  store i32 0, ptr %5, align 4, !tbaa !8
  br label %6

6:                                                ; preds = %25, %2
  %7 = load i32, ptr %5, align 4, !tbaa !8
  %8 = icmp slt i32 %7, 9
  br i1 %8, label %10, label %9

9:                                                ; preds = %6
  call void @llvm.lifetime.end.p0(i64 4, ptr %5) #3
  br label %28

10:                                               ; preds = %6
  %11 = load ptr, ptr %3, align 8, !tbaa !126
  %12 = getelementptr inbounds nuw %"class.cv::Matx.19", ptr %11, i32 0, i32 0
  %13 = load i32, ptr %5, align 4, !tbaa !8
  %14 = sext i32 %13 to i64
  %15 = getelementptr inbounds [9 x double], ptr %12, i64 0, i64 %14
  %16 = load double, ptr %15, align 8, !tbaa !18
  %17 = load double, ptr %4, align 8, !tbaa !18
  %18 = fmul double %16, %17
  %19 = call noundef double @_ZN2cvL13saturate_castIdEET_d(double noundef %18)
  %20 = load ptr, ptr %3, align 8, !tbaa !126
  %21 = getelementptr inbounds nuw %"class.cv::Matx.19", ptr %20, i32 0, i32 0
  %22 = load i32, ptr %5, align 4, !tbaa !8
  %23 = sext i32 %22 to i64
  %24 = getelementptr inbounds [9 x double], ptr %21, i64 0, i64 %23
  store double %19, ptr %24, align 8, !tbaa !18
  br label %25

25:                                               ; preds = %10
  %26 = load i32, ptr %5, align 4, !tbaa !8
  %27 = add nsw i32 %26, 1
  store i32 %27, ptr %5, align 4, !tbaa !8
  br label %6, !llvm.loop !153

28:                                               ; preds = %9
  %29 = load ptr, ptr %3, align 8, !tbaa !126
  ret ptr %29
}

; Function Attrs: inlinehint mustprogress nounwind uwtable
define linkonce_odr hidden void @_ZN2cv11_InputArrayD2Ev(ptr noundef nonnull align 8 dereferenceable(24) %0) unnamed_addr #9 comdat align 2 {
  %2 = alloca ptr, align 8
  store ptr %0, ptr %2, align 8, !tbaa !109
  ret void
}

; Function Attrs: inlinehint mustprogress uwtable
define linkonce_odr hidden void @_ZN2cv17_InputOutputArrayC2IdLi3ELi1EEERNS_4MatxIT_XT0_EXT1_EEE(ptr noundef nonnull align 8 dereferenceable(24) %0, ptr noundef nonnull align 8 dereferenceable(24) %1) unnamed_addr #8 comdat align 2 personality ptr @__gxx_personality_v0 {
  %3 = alloca ptr, align 8
  %4 = alloca ptr, align 8
  %5 = alloca %"class.cv::Size_", align 4
  %6 = alloca ptr, align 8
  %7 = alloca i32, align 4
  store ptr %0, ptr %3, align 8, !tbaa !148
  store ptr %1, ptr %4, align 8, !tbaa !142
  %8 = load ptr, ptr %3, align 8
  call void @_ZN2cv12_OutputArrayC2Ev(ptr noundef nonnull align 8 dereferenceable(24) %8)
  %9 = load ptr, ptr %4, align 8, !tbaa !142
  invoke void @_ZN2cv5Size_IiEC2Eii(ptr noundef nonnull align 4 dereferenceable(8) %5, i32 noundef 1, i32 noundef 3)
          to label %10 unwind label %12

10:                                               ; preds = %2
  %11 = load i64, ptr %5, align 4
  call void @_ZN2cv11_InputArray4initEiPKvNS_5Size_IiEE(ptr noundef nonnull align 8 dereferenceable(24) %8, i32 noundef -1023279098, ptr noundef %9, i64 %11)
  ret void

12:                                               ; preds = %2
  %13 = landingpad { ptr, i32 }
          cleanup
  %14 = extractvalue { ptr, i32 } %13, 0
  store ptr %14, ptr %6, align 8
  %15 = extractvalue { ptr, i32 } %13, 1
  store i32 %15, ptr %7, align 4
  call void @_ZN2cv11_InputArrayD2Ev(ptr noundef nonnull align 8 dereferenceable(24) %8) #3
  br label %16

16:                                               ; preds = %12
  %17 = load ptr, ptr %6, align 8
  %18 = load i32, ptr %7, align 4
  %19 = insertvalue { ptr, i32 } poison, ptr %17, 0
  %20 = insertvalue { ptr, i32 } %19, i32 %18, 1
  resume { ptr, i32 } %20
}

; Function Attrs: inlinehint mustprogress uwtable
define linkonce_odr hidden void @_ZN2cv12_OutputArrayC2IdLi3ELi3EEERNS_4MatxIT_XT0_EXT1_EEE(ptr noundef nonnull align 8 dereferenceable(24) %0, ptr noundef nonnull align 8 dereferenceable(72) %1) unnamed_addr #8 comdat align 2 personality ptr @__gxx_personality_v0 {
  %3 = alloca ptr, align 8
  %4 = alloca ptr, align 8
  %5 = alloca %"class.cv::Size_", align 4
  %6 = alloca ptr, align 8
  %7 = alloca i32, align 4
  store ptr %0, ptr %3, align 8, !tbaa !68
  store ptr %1, ptr %4, align 8, !tbaa !126
  %8 = load ptr, ptr %3, align 8
  call void @_ZN2cv11_InputArrayC2Ev(ptr noundef nonnull align 8 dereferenceable(24) %8)
  %9 = load ptr, ptr %4, align 8, !tbaa !126
  invoke void @_ZN2cv5Size_IiEC2Eii(ptr noundef nonnull align 4 dereferenceable(8) %5, i32 noundef 3, i32 noundef 3)
          to label %10 unwind label %12

10:                                               ; preds = %2
  %11 = load i64, ptr %5, align 4
  call void @_ZN2cv11_InputArray4initEiPKvNS_5Size_IiEE(ptr noundef nonnull align 8 dereferenceable(24) %8, i32 noundef -1040056314, ptr noundef %9, i64 %11)
  ret void

12:                                               ; preds = %2
  %13 = landingpad { ptr, i32 }
          cleanup
  %14 = extractvalue { ptr, i32 } %13, 0
  store ptr %14, ptr %6, align 8
  %15 = extractvalue { ptr, i32 } %13, 1
  store i32 %15, ptr %7, align 4
  call void @_ZN2cv11_InputArrayD2Ev(ptr noundef nonnull align 8 dereferenceable(24) %8) #3
  br label %16

16:                                               ; preds = %12
  %17 = load ptr, ptr %6, align 8
  %18 = load i32, ptr %7, align 4
  %19 = insertvalue { ptr, i32 } poison, ptr %17, 0
  %20 = insertvalue { ptr, i32 } %19, i32 %18, 1
  resume { ptr, i32 } %20
}

; Function Attrs: inlinehint mustprogress uwtable
define linkonce_odr hidden void @_ZN2cv11_InputArrayC2ERKNS_3MatE(ptr noundef nonnull align 8 dereferenceable(24) %0, ptr noundef nonnull align 8 dereferenceable(96) %1) unnamed_addr #8 comdat align 2 {
  %3 = alloca ptr, align 8
  %4 = alloca ptr, align 8
  store ptr %0, ptr %3, align 8, !tbaa !109
  store ptr %1, ptr %4, align 8, !tbaa !46
  %5 = load ptr, ptr %3, align 8
  %6 = getelementptr inbounds nuw %"class.cv::_InputArray", ptr %5, i32 0, i32 2
  call void @_ZN2cv5Size_IiEC2Ev(ptr noundef nonnull align 4 dereferenceable(8) %6)
  %7 = load ptr, ptr %4, align 8, !tbaa !46
  call void @_ZN2cv11_InputArray4initEiPKv(ptr noundef nonnull align 8 dereferenceable(24) %5, i32 noundef 16842752, ptr noundef %7)
  ret void
}

; Function Attrs: inlinehint mustprogress uwtable
define linkonce_odr hidden void @_ZNK2cv3Mat8rowRangeEii(ptr dead_on_unwind noalias writable sret(%"class.cv::Mat") align 8 %0, ptr noundef nonnull align 8 dereferenceable(96) %1, i32 noundef %2, i32 noundef %3) #8 comdat align 2 {
  %5 = alloca ptr, align 8
  %6 = alloca ptr, align 8
  %7 = alloca i32, align 4
  %8 = alloca i32, align 4
  %9 = alloca %"class.cv::Range", align 4
  %10 = alloca %"class.cv::Range", align 4
  store ptr %0, ptr %5, align 8
  store ptr %1, ptr %6, align 8, !tbaa !46
  store i32 %2, ptr %7, align 4, !tbaa !8
  store i32 %3, ptr %8, align 4, !tbaa !8
  %11 = load ptr, ptr %6, align 8
  call void @llvm.lifetime.start.p0(i64 8, ptr %9) #3
  %12 = load i32, ptr %7, align 4, !tbaa !8
  %13 = load i32, ptr %8, align 4, !tbaa !8
  call void @_ZN2cv5RangeC2Eii(ptr noundef nonnull align 4 dereferenceable(8) %9, i32 noundef %12, i32 noundef %13)
  call void @llvm.lifetime.start.p0(i64 8, ptr %10) #3
  %14 = call i64 @_ZN2cv5Range3allEv()
  store i64 %14, ptr %10, align 4
  call void @_ZN2cv3MatC1ERKS0_RKNS_5RangeES5_(ptr noundef nonnull align 8 dereferenceable(96) %0, ptr noundef nonnull align 8 dereferenceable(96) %11, ptr noundef nonnull align 4 dereferenceable(8) %9, ptr noundef nonnull align 4 dereferenceable(8) %10)
  call void @llvm.lifetime.end.p0(i64 8, ptr %10) #3
  call void @llvm.lifetime.end.p0(i64 8, ptr %9) #3
  ret void
}

; Function Attrs: mustprogress uwtable
define hidden void @_ZN2cv12ppf_match_3d14meanCovLocalPCERKNS_3MatEiRNS_4MatxIdLi3ELi3EEERNS_3VecIdLi3EEE(ptr noundef nonnull align 8 dereferenceable(96) %0, i32 noundef %1, ptr noundef nonnull align 8 dereferenceable(72) %2, ptr noundef nonnull align 8 dereferenceable(24) %3) #4 personality ptr @__gxx_personality_v0 {
  %5 = alloca ptr, align 8
  %6 = alloca i32, align 4
  %7 = alloca ptr, align 8
  %8 = alloca ptr, align 8
  %9 = alloca %"class.cv::_InputArray", align 8
  %10 = alloca %"class.cv::Mat", align 8
  %11 = alloca ptr, align 8
  %12 = alloca i32, align 4
  %13 = alloca %"class.cv::_OutputArray", align 8
  %14 = alloca %"class.cv::_InputOutputArray", align 8
  store ptr %0, ptr %5, align 8, !tbaa !46
  store i32 %1, ptr %6, align 4, !tbaa !8
  store ptr %2, ptr %7, align 8, !tbaa !126
  store ptr %3, ptr %8, align 8, !tbaa !129
  call void @llvm.lifetime.start.p0(i64 24, ptr %9) #3
  call void @llvm.lifetime.start.p0(i64 96, ptr %10) #3
  %15 = load ptr, ptr %5, align 8, !tbaa !46
  %16 = load i32, ptr %6, align 4, !tbaa !8
  call void @_ZNK2cv3Mat8rowRangeEii(ptr dead_on_unwind writable sret(%"class.cv::Mat") align 8 %10, ptr noundef nonnull align 8 dereferenceable(96) %15, i32 noundef 0, i32 noundef %16)
  invoke void @_ZN2cv11_InputArrayC2ERKNS_3MatE(ptr noundef nonnull align 8 dereferenceable(24) %9, ptr noundef nonnull align 8 dereferenceable(96) %10)
          to label %17 unwind label %29

17:                                               ; preds = %4
  call void @llvm.lifetime.start.p0(i64 24, ptr %13) #3
  %18 = load ptr, ptr %7, align 8, !tbaa !126
  invoke void @_ZN2cv12_OutputArrayC2IdLi3ELi3EEERNS_4MatxIT_XT0_EXT1_EEE(ptr noundef nonnull align 8 dereferenceable(24) %13, ptr noundef nonnull align 8 dereferenceable(72) %18)
          to label %19 unwind label %33

19:                                               ; preds = %17
  call void @llvm.lifetime.start.p0(i64 24, ptr %14) #3
  %20 = load ptr, ptr %8, align 8, !tbaa !129
  invoke void @_ZN2cv17_InputOutputArrayC2IdLi3ELi1EEERNS_4MatxIT_XT0_EXT1_EEE(ptr noundef nonnull align 8 dereferenceable(24) %14, ptr noundef nonnull align 8 dereferenceable(24) %20)
          to label %21 unwind label %37

21:                                               ; preds = %19
  invoke void @_ZN2cv15calcCovarMatrixERKNS_11_InputArrayERKNS_12_OutputArrayERKNS_17_InputOutputArrayEii(ptr noundef nonnull align 8 dereferenceable(24) %9, ptr noundef nonnull align 8 dereferenceable(24) %13, ptr noundef nonnull align 8 dereferenceable(24) %14, i32 noundef 9, i32 noundef 6)
          to label %22 unwind label %41

22:                                               ; preds = %21
  call void @_ZN2cv11_InputArrayD2Ev(ptr noundef nonnull align 8 dereferenceable(24) %14) #3
  call void @llvm.lifetime.end.p0(i64 24, ptr %14) #3
  call void @_ZN2cv11_InputArrayD2Ev(ptr noundef nonnull align 8 dereferenceable(24) %13) #3
  call void @llvm.lifetime.end.p0(i64 24, ptr %13) #3
  call void @_ZN2cv11_InputArrayD2Ev(ptr noundef nonnull align 8 dereferenceable(24) %9) #3
  call void @_ZN2cv3MatD1Ev(ptr noundef nonnull align 8 dereferenceable(96) %10) #3
  call void @llvm.lifetime.end.p0(i64 96, ptr %10) #3
  call void @llvm.lifetime.end.p0(i64 24, ptr %9) #3
  %23 = load i32, ptr %6, align 4, !tbaa !8
  %24 = sub nsw i32 %23, 1
  %25 = sitofp i32 %24 to double
  %26 = fdiv double 1.000000e+00, %25
  %27 = load ptr, ptr %7, align 8, !tbaa !126
  %28 = call noundef nonnull align 8 dereferenceable(72) ptr @_ZN2cvmLIdLi3ELi3EEERNS_4MatxIT_XT0_EXT1_EEES4_d(ptr noundef nonnull align 8 dereferenceable(72) %27, double noundef %26)
  ret void

29:                                               ; preds = %4
  %30 = landingpad { ptr, i32 }
          cleanup
  %31 = extractvalue { ptr, i32 } %30, 0
  store ptr %31, ptr %11, align 8
  %32 = extractvalue { ptr, i32 } %30, 1
  store i32 %32, ptr %12, align 4
  br label %47

33:                                               ; preds = %17
  %34 = landingpad { ptr, i32 }
          cleanup
  %35 = extractvalue { ptr, i32 } %34, 0
  store ptr %35, ptr %11, align 8
  %36 = extractvalue { ptr, i32 } %34, 1
  store i32 %36, ptr %12, align 4
  br label %46

37:                                               ; preds = %19
  %38 = landingpad { ptr, i32 }
          cleanup
  %39 = extractvalue { ptr, i32 } %38, 0
  store ptr %39, ptr %11, align 8
  %40 = extractvalue { ptr, i32 } %38, 1
  store i32 %40, ptr %12, align 4
  br label %45

41:                                               ; preds = %21
  %42 = landingpad { ptr, i32 }
          cleanup
  %43 = extractvalue { ptr, i32 } %42, 0
  store ptr %43, ptr %11, align 8
  %44 = extractvalue { ptr, i32 } %42, 1
  store i32 %44, ptr %12, align 4
  call void @_ZN2cv11_InputArrayD2Ev(ptr noundef nonnull align 8 dereferenceable(24) %14) #3
  br label %45

45:                                               ; preds = %41, %37
  call void @llvm.lifetime.end.p0(i64 24, ptr %14) #3
  call void @_ZN2cv11_InputArrayD2Ev(ptr noundef nonnull align 8 dereferenceable(24) %13) #3
  br label %46

46:                                               ; preds = %45, %33
  call void @llvm.lifetime.end.p0(i64 24, ptr %13) #3
  call void @_ZN2cv11_InputArrayD2Ev(ptr noundef nonnull align 8 dereferenceable(24) %9) #3
  br label %47

47:                                               ; preds = %46, %29
  call void @_ZN2cv3MatD1Ev(ptr noundef nonnull align 8 dereferenceable(96) %10) #3
  call void @llvm.lifetime.end.p0(i64 96, ptr %10) #3
  call void @llvm.lifetime.end.p0(i64 24, ptr %9) #3
  br label %48

48:                                               ; preds = %47
  %49 = load ptr, ptr %11, align 8
  %50 = load i32, ptr %12, align 4
  %51 = insertvalue { ptr, i32 } poison, ptr %49, 0
  %52 = insertvalue { ptr, i32 } %51, i32 %50, 1
  resume { ptr, i32 } %52
}