; Function Attrs: mustprogress uwtable
define hidden void @_ZN2cv12ppf_match_3d14meanCovLocalPCERKNS_3MatEiRNS_4MatxIdLi3ELi3EEERNS_3VecIdLi3EEE(ptr noundef nonnull align 8 dereferenceable(96) %0, i32 noundef %1, ptr noundef nonnull align 8 dereferenceable(72) %2, ptr noundef nonnull align 8 dereferenceable(24) %3) local_unnamed_addr #3 personality ptr @__gxx_personality_v0 {
  %5 = alloca %"class.cv::Range", align 4
  %6 = alloca %"class.cv::Range", align 8
  %7 = alloca %"class.cv::_InputArray", align 8
  %8 = alloca %"class.cv::Mat", align 8
  %9 = alloca %"class.cv::_OutputArray", align 8
  %10 = alloca %"class.cv::_InputOutputArray", align 8
  call void @llvm.lifetime.start.p0(i64 24, ptr nonnull %7) #36
  call void @llvm.lifetime.start.p0(i64 96, ptr nonnull %8) #36
  call void @llvm.lifetime.start.p0(i64 8, ptr nonnull %5) #36, !noalias !286
  store i32 0, ptr %5, align 4, !tbaa !95, !noalias !286
  %11 = getelementptr inbounds nuw i8, ptr %5, i64 4
  store i32 %1, ptr %11, align 4, !tbaa !97, !noalias !286
  call void @llvm.lifetime.start.p0(i64 8, ptr nonnull %6) #36, !noalias !286
  store i64 9223372034707292160, ptr %6, align 8, !noalias !286
  call void @_ZN2cv3MatC1ERKS0_RKNS_5RangeES5_(ptr noundef nonnull align 8 dereferenceable(96) %8, ptr noundef nonnull align 8 dereferenceable(96) %0, ptr noundef nonnull align 4 dereferenceable(8) %5, ptr noundef nonnull align 4 dereferenceable(8) %6)
  call void @llvm.lifetime.end.p0(i64 8, ptr nonnull %6) #36, !noalias !286
  call void @llvm.lifetime.end.p0(i64 8, ptr nonnull %5) #36, !noalias !286
  %12 = getelementptr inbounds nuw i8, ptr %7, i64 16
  store i32 0, ptr %12, align 8, !tbaa !185
  %13 = getelementptr inbounds nuw i8, ptr %7, i64 20
  store i32 0, ptr %13, align 4, !tbaa !186
  store i32 16842752, ptr %7, align 8, !tbaa !101
  %14 = getelementptr inbounds nuw i8, ptr %7, i64 8
  store ptr %8, ptr %14, align 8, !tbaa !104
  call void @llvm.lifetime.start.p0(i64 24, ptr nonnull %9) #36
  %15 = getelementptr inbounds nuw i8, ptr %9, i64 8
  store i32 -1040056314, ptr %9, align 8, !tbaa !101
  store ptr %2, ptr %15, align 8, !tbaa !104
  %16 = getelementptr inbounds nuw i8, ptr %9, i64 16
  store i64 12884901891, ptr %16, align 8
  call void @llvm.lifetime.start.p0(i64 24, ptr nonnull %10) #36
  %17 = getelementptr inbounds nuw i8, ptr %10, i64 8
  %18 = getelementptr inbounds nuw i8, ptr %10, i64 16
  store i32 -1023279098, ptr %10, align 8, !tbaa !101
  store ptr %3, ptr %17, align 8, !tbaa !104
  store i64 12884901889, ptr %18, align 8
  invoke void @_ZN2cv15calcCovarMatrixERKNS_11_InputArrayERKNS_12_OutputArrayERKNS_17_InputOutputArrayEii(ptr noundef nonnull align 8 dereferenceable(24) %7, ptr noundef nonnull align 8 dereferenceable(24) %9, ptr noundef nonnull align 8 dereferenceable(24) %10, i32 noundef 9, i32 noundef 6)
          to label %19 unwind label %27

19:                                               ; preds = %4
  call void @llvm.lifetime.end.p0(i64 24, ptr nonnull %10) #36
  call void @llvm.lifetime.end.p0(i64 24, ptr nonnull %9) #36
  call void @_ZN2cv3MatD1Ev(ptr noundef nonnull align 8 dereferenceable(96) %8) #36
  call void @llvm.lifetime.end.p0(i64 96, ptr nonnull %8) #36
  call void @llvm.lifetime.end.p0(i64 24, ptr nonnull %7) #36
  %20 = add nsw i32 %1, -1
  %21 = sitofp i32 %20 to double
  %22 = fdiv double 1.000000e+00, %21
  br label %23

23:                                               ; preds = %23, %19
  %indvars.iv.i = phi i64 [ 0, %19 ], [ %indvars.iv.next.i, %23 ]
  %24 = getelementptr inbounds nuw [9 x double], ptr %2, i64 0, i64 %indvars.iv.i
  %25 = load double, ptr %24, align 8, !tbaa !174
  %26 = fmul double %22, %25
  store double %26, ptr %24, align 8, !tbaa !174
  %indvars.iv.next.i = add nuw nsw i64 %indvars.iv.i, 1
  %exitcond.not.i = icmp eq i64 %indvars.iv.next.i, 9
  br i1 %exitcond.not.i, label %_ZN2cvmLIdLi3ELi3EEERNS_4MatxIT_XT0_EXT1_EEES4_d.exit, label %23, !llvm.loop !289

_ZN2cvmLIdLi3ELi3EEERNS_4MatxIT_XT0_EXT1_EEES4_d.exit: ; preds = %23
  ret void

27:                                               ; preds = %4
  %28 = landingpad { ptr, i32 }
          cleanup
  call void @llvm.lifetime.end.p0(i64 24, ptr nonnull %10) #36
  call void @llvm.lifetime.end.p0(i64 24, ptr nonnull %9) #36
  call void @_ZN2cv3MatD1Ev(ptr noundef nonnull align 8 dereferenceable(96) %8) #36
  call void @llvm.lifetime.end.p0(i64 96, ptr nonnull %8) #36
  call void @llvm.lifetime.end.p0(i64 24, ptr nonnull %7) #36
  resume { ptr, i32 } %28
}